target datalayout = "e-m:e-p270:32:32-p271:32:32-p272:64:64-i64:64-i128:128-f80:128-n8:16:32:64-S128"
target triple = "x86_64-pc-linux-gnu"

%struct.AVRational = type { i32, i32 }
%struct.AVCodecContext = type { ptr, i32, i32, ptr, i32, i32, ptr, ptr, ptr, i64, i32, i32, ptr, i32, %struct.AVRational, %struct.AVRational, %struct.AVRational, i32, i32, i32, i32, i32, %struct.AVRational, i32, i32, i32, i32, i32, i32, i32, i32, i32, i32, i32, ptr, ptr, i32, float, float, float, float, float, float, float, float, float, i32, i32, i32, i32, i32, i32, i32, i32, i32, i32, i32, i32, ptr, ptr, ptr, i32, i32, i32, i32, i32, i32, i32, i32, i32, i32, %struct.AVChannelLayout, i32, i32, i32, i32, i32, i32, i32, i32, ptr, i32, i32, i32, float, float, i32, i32, i32, i32, i32, ptr, i64, i64, float, float, i32, i32, ptr, ptr, i32, i32, i32, i32, i32, ptr, ptr, ptr, ptr, i32, i32, [8 x i64], i32, i32, i32, i32, i32, i32, i32, ptr, ptr, i32, i32, i32, i32, i32, i32, i32, i32, i32, i32, ptr, ptr, i32, i32, ptr, ptr, ptr, ptr, i32, i32, i64, i32, i32, i64, ptr, i64, ptr, i32, ptr, i32 }
%struct.AVChannelLayout = type { i32, i32, %union.anon, ptr }
%union.anon = type { i64 }
%struct.AVCodecInternal = type { i32, i32, i32, ptr, ptr, ptr, ptr, ptr, ptr, ptr, i32, ptr, ptr, ptr, i32, i32, ptr, i32, ptr, ptr, i32, i32 }
%struct.ProgressFrame = type { ptr, ptr }
%struct.ProgressInternal = type { %struct.ThreadProgress, ptr }
%struct.ThreadProgress = type { i32, i32, %union.pthread_mutex_t, %union.pthread_cond_t }
%union.pthread_mutex_t = type { %struct.__pthread_mutex_s }
%struct.__pthread_mutex_s = type { i32, i32, i32, i32, i32, i16, i16, %struct.__pthread_internal_list }
%struct.__pthread_internal_list = type { ptr, ptr }
%union.pthread_cond_t = type { %struct.__pthread_cond_s }
%struct.__pthread_cond_s = type { %union.__atomic_wide_counter, %union.__atomic_wide_counter, [2 x i32], [2 x i32], i32, i32, [2 x i32] }
%union.__atomic_wide_counter = type { i64 }

; Function Attrs: nounwind uwtable
define i32 @ff_progress_frame_alloc(ptr noundef %0, ptr noundef %1) #0 {
  %3 = alloca i32, align 4
  %4 = alloca ptr, align 8
  %5 = alloca ptr, align 8
  %6 = alloca ptr, align 8
  %7 = alloca i32, align 4
  store ptr %0, ptr %4, align 8, !tbaa !4
  store ptr %1, ptr %5, align 8, !tbaa !272
  call void @llvm.lifetime.start.p0(i64 8, ptr %6) #11
  %8 = load ptr, ptr %4, align 8, !tbaa !4
  %9 = getelementptr inbounds nuw %struct.AVCodecContext, ptr %8, i32 0, i32 7
  %10 = load ptr, ptr %9, align 8, !tbaa !11
  %11 = getelementptr inbounds nuw %struct.AVCodecInternal, ptr %10, i32 0, i32 4
  %12 = load ptr, ptr %11, align 8, !tbaa !274
  store ptr %12, ptr %6, align 8, !tbaa !275
  %13 = load ptr, ptr %6, align 8, !tbaa !275
  %14 = call ptr @av_refstruct_pool_get(ptr noundef %13)
  %15 = load ptr, ptr %5, align 8, !tbaa !272
  %16 = getelementptr inbounds nuw %struct.ProgressFrame, ptr %15, i32 0, i32 1
  store ptr %14, ptr %16, align 8, !tbaa !276
  %17 = load ptr, ptr %5, align 8, !tbaa !272
  %18 = getelementptr inbounds nuw %struct.ProgressFrame, ptr %17, i32 0, i32 1
  %19 = load ptr, ptr %18, align 8, !tbaa !276
  %20 = icmp ne ptr %19, null
  br i1 %20, label %22, label %21

21:                                               ; preds = %2
  store i32 -12, ptr %3, align 4
  store i32 1, ptr %7, align 4
  br label %30

22:                                               ; preds = %2
  %23 = load ptr, ptr %5, align 8, !tbaa !272
  %24 = getelementptr inbounds nuw %struct.ProgressFrame, ptr %23, i32 0, i32 1
  %25 = load ptr, ptr %24, align 8, !tbaa !276
  %26 = getelementptr inbounds nuw %struct.ProgressInternal, ptr %25, i32 0, i32 1
  %27 = load ptr, ptr %26, align 8, !tbaa !279
  %28 = load ptr, ptr %5, align 8, !tbaa !272
  %29 = getelementptr inbounds nuw %struct.ProgressFrame, ptr %28, i32 0, i32 0
  store ptr %27, ptr %29, align 8, !tbaa !282
  store i32 0, ptr %3, align 4
  store i32 1, ptr %7, align 4
  br label %30

30:                                               ; preds = %22, %21
  call void @llvm.lifetime.end.p0(i64 8, ptr %6) #11
  %31 = load i32, ptr %3, align 4
  ret i32 %31
}

; Function Attrs: nounwind uwtable
define i32 @ff_progress_frame_get_buffer(ptr noundef %0, ptr noundef %1, i32 noundef %2) #0 {
  %4 = alloca i32, align 4
  %5 = alloca ptr, align 8
  %6 = alloca ptr, align 8
  %7 = alloca i32, align 4
  %8 = alloca i32, align 4
  %9 = alloca i32, align 4
  store ptr %0, ptr %5, align 8, !tbaa !4
  store ptr %1, ptr %6, align 8, !tbaa !272
  store i32 %2, ptr %7, align 4, !tbaa !41
  call void @llvm.lifetime.start.p0(i64 4, ptr %8) #11
  %10 = load ptr, ptr %5, align 8, !tbaa !4
  %11 = load ptr, ptr %6, align 8, !tbaa !272
  %12 = call i32 @ff_progress_frame_alloc(ptr noundef %10, ptr noundef %11)
  store i32 %12, ptr %8, align 4, !tbaa !41
  %13 = load i32, ptr %8, align 4, !tbaa !41
  %14 = icmp slt i32 %13, 0
  br i1 %14, label %15, label %17

15:                                               ; preds = %3
  %16 = load i32, ptr %8, align 4, !tbaa !41
  store i32 %16, ptr %4, align 4
  store i32 1, ptr %9, align 4
  br label %35

17:                                               ; preds = %3
  %18 = load ptr, ptr %5, align 8, !tbaa !4
  %19 = load ptr, ptr %6, align 8, !tbaa !272
  %20 = getelementptr inbounds nuw %struct.ProgressFrame, ptr %19, i32 0, i32 1
  %21 = load ptr, ptr %20, align 8, !tbaa !276
  %22 = getelementptr inbounds nuw %struct.ProgressInternal, ptr %21, i32 0, i32 1
  %23 = load ptr, ptr %22, align 8, !tbaa !279
  %24 = load i32, ptr %7, align 4, !tbaa !41
  %25 = call i32 @ff_thread_get_buffer(ptr noundef %18, ptr noundef %23, i32 noundef %24)
  store i32 %25, ptr %8, align 4, !tbaa !41
  %26 = load i32, ptr %8, align 4, !tbaa !41
  %27 = icmp slt i32 %26, 0
  br i1 %27, label %28, label %34

28:                                               ; preds = %17
  %29 = load ptr, ptr %6, align 8, !tbaa !272
  %30 = getelementptr inbounds nuw %struct.ProgressFrame, ptr %29, i32 0, i32 0
  store ptr null, ptr %30, align 8, !tbaa !282
  %31 = load ptr, ptr %6, align 8, !tbaa !272
  %32 = getelementptr inbounds nuw %struct.ProgressFrame, ptr %31, i32 0, i32 1
  call void @av_refstruct_unref(ptr noundef %32)
  %33 = load i32, ptr %8, align 4, !tbaa !41
  store i32 %33, ptr %4, align 4
  store i32 1, ptr %9, align 4
  br label %35

34:                                               ; preds = %17
  store i32 0, ptr %4, align 4
  store i32 1, ptr %9, align 4
  br label %35

35:                                               ; preds = %34, %28, %15
  call void @llvm.lifetime.end.p0(i64 4, ptr %8) #11
  %36 = load i32, ptr %4, align 4
  ret i32 %36
}