; Function Attrs: nounwind uwtable
define range(i32 -2147483648, 1) i32 @ff_progress_frame_get_buffer(ptr noundef %0, ptr noundef initializes((8, 16)) %1, i32 noundef %2) local_unnamed_addr #0 {
  %4 = getelementptr inbounds nuw i8, ptr %0, i64 40
  %5 = load ptr, ptr %4, align 8, !tbaa !4
  %6 = getelementptr inbounds nuw i8, ptr %5, i64 24
  %7 = load ptr, ptr %6, align 8, !tbaa !248
  %8 = tail call ptr @av_refstruct_pool_get(ptr noundef %7) #10
  %9 = getelementptr inbounds nuw i8, ptr %1, i64 8
  store ptr %8, ptr %9, align 8, !tbaa !249
  %.not.i = icmp eq ptr %8, null
  br i1 %.not.i, label %ff_progress_frame_alloc.exit.thread, label %10

10:                                               ; preds = %3
  %11 = getelementptr inbounds nuw i8, ptr %8, i64 96
  %12 = load ptr, ptr %11, align 8, !tbaa !252
  store ptr %12, ptr %1, align 8, !tbaa !255
  %13 = tail call i32 @ff_thread_get_buffer(ptr noundef nonnull %0, ptr noundef %12, i32 noundef %2) #10
  %14 = icmp slt i32 %13, 0
  br i1 %14, label %15, label %ff_progress_frame_alloc.exit.thread

15:                                               ; preds = %10
  store ptr null, ptr %1, align 8, !tbaa !255
  tail call void @av_refstruct_unref(ptr noundef nonnull %9) #10
  br label %ff_progress_frame_alloc.exit.thread

ff_progress_frame_alloc.exit.thread:              ; preds = %3, %10, %15
  %.0 = phi i32 [ %13, %15 ], [ 0, %10 ], [ -12, %3 ]
  ret i32 %.0
}